target datalayout = "e-m:e-p270:32:32-p271:32:32-p272:64:64-i64:64-i128:128-f80:128-n8:16:32:64-S128"
target triple = "x86_64-pc-linux-gnu"

%struct.lua_Debug = type { ptr, ptr, ptr, ptr, i32, i32, i8, i8, i8, ptr, [256 x i8] }
%struct.luaL_Strbuf = type { ptr, ptr, ptr, ptr, [512 x i8] }

@.str.3 = private unnamed_addr constant [24 x i8] c"level can't be negative\00", align 1
@.str.8 = private unnamed_addr constant [2 x i8] c"\0A\00", align 1
@.str.9 = private unnamed_addr constant [4 x i8] c"sln\00", align 1
@.str.10 = private unnamed_addr constant [2 x i8] c"C\00", align 1
@.str.11 = private unnamed_addr constant [11 x i8] c" function \00", align 1

; Function Attrs: mustprogress uwtable
define internal noundef ptr @_ZL9getthreadP9lua_StatePi(ptr noundef %0, ptr noundef %1) #0 {
  %3 = alloca ptr, align 8
  %4 = alloca ptr, align 8
  %5 = alloca ptr, align 8
  store ptr %0, ptr %4, align 8, !tbaa !4
  store ptr %1, ptr %5, align 8, !tbaa !34
  %6 = load ptr, ptr %4, align 8, !tbaa !4
  %7 = call noundef i32 @_Z8lua_typeP9lua_Statei(ptr noundef %6, i32 noundef 1)
  %8 = icmp eq i32 %7, 9
  br i1 %8, label %9, label %13

9:                                                ; preds = %2
  %10 = load ptr, ptr %5, align 8, !tbaa !34
  store i32 1, ptr %10, align 4, !tbaa !9
  %11 = load ptr, ptr %4, align 8, !tbaa !4
  %12 = call noundef ptr @_Z12lua_tothreadP9lua_Statei(ptr noundef %11, i32 noundef 1)
  store ptr %12, ptr %3, align 8
  br label %16

13:                                               ; preds = %2
  %14 = load ptr, ptr %5, align 8, !tbaa !34
  store i32 0, ptr %14, align 4, !tbaa !9
  %15 = load ptr, ptr %4, align 8, !tbaa !4
  store ptr %15, ptr %3, align 8
  br label %16

16:                                               ; preds = %13, %9
  %17 = load ptr, ptr %3, align 8
  ret ptr %17
}

; Function Attrs: mustprogress uwtable
define internal noundef i32 @_ZL12db_tracebackP9lua_State(ptr noundef %0) #0 {
  %2 = alloca ptr, align 8
  %3 = alloca i32, align 4
  %4 = alloca ptr, align 8
  %5 = alloca ptr, align 8
  %6 = alloca i32, align 4
  %7 = alloca %struct.luaL_Strbuf, align 8
  %8 = alloca %struct.lua_Debug, align 8
  %9 = alloca i32, align 4
  %10 = alloca i32, align 4
  %11 = alloca [32 x i8], align 16
  %12 = alloca ptr, align 8
  %13 = alloca ptr, align 8
  %14 = alloca i32, align 4
  store ptr %0, ptr %2, align 8, !tbaa !4
  call void @llvm.lifetime.start.p0(i64 4, ptr %3) #6
  call void @llvm.lifetime.start.p0(i64 8, ptr %4) #6
  %15 = load ptr, ptr %2, align 8, !tbaa !4
  %16 = call noundef ptr @_ZL9getthreadP9lua_StatePi(ptr noundef %15, ptr noundef %3)
  store ptr %16, ptr %4, align 8, !tbaa !4
  call void @llvm.lifetime.start.p0(i64 8, ptr %5) #6
  %17 = load ptr, ptr %2, align 8, !tbaa !4
  %18 = load i32, ptr %3, align 4, !tbaa !9
  %19 = add nsw i32 %18, 1
  %20 = call noundef ptr @_Z15luaL_optlstringP9lua_StateiPKcPm(ptr noundef %17, i32 noundef %19, ptr noundef null, ptr noundef null)
  store ptr %20, ptr %5, align 8, !tbaa !11
  call void @llvm.lifetime.start.p0(i64 4, ptr %6) #6
  %21 = load ptr, ptr %2, align 8, !tbaa !4
  %22 = load i32, ptr %3, align 4, !tbaa !9
  %23 = add nsw i32 %22, 2
  %24 = load ptr, ptr %2, align 8, !tbaa !4
  %25 = load ptr, ptr %4, align 8, !tbaa !4
  %26 = icmp eq ptr %24, %25
  %27 = select i1 %26, i32 1, i32 0
  %28 = call noundef i32 @_Z15luaL_optintegerP9lua_Stateii(ptr noundef %21, i32 noundef %23, i32 noundef %27)
  store i32 %28, ptr %6, align 4, !tbaa !9
  %29 = load i32, ptr %6, align 4, !tbaa !9
  %30 = icmp sge i32 %29, 0
  br i1 %30, label %31, label %32

31:                                               ; preds = %1
  br label %37

32:                                               ; preds = %1
  %33 = load ptr, ptr %2, align 8, !tbaa !4
  %34 = load i32, ptr %3, align 4, !tbaa !9
  %35 = add nsw i32 %34, 2
  call void @_Z14luaL_argerrorLP9lua_StateiPKc(ptr noundef %33, i32 noundef %35, ptr noundef @.str.3) #7
  unreachable

36:                                               ; No predecessors!
  br label %37

37:                                               ; preds = %36, %31
  call void @llvm.lifetime.start.p0(i64 544, ptr %7) #6
  %38 = load ptr, ptr %2, align 8, !tbaa !4
  call void @_Z13luaL_buffinitP9lua_StateP11luaL_Strbuf(ptr noundef %38, ptr noundef %7)
  %39 = load ptr, ptr %5, align 8, !tbaa !11
  %40 = icmp ne ptr %39, null
  br i1 %40, label %41, label %45

41:                                               ; preds = %37
  %42 = load ptr, ptr %5, align 8, !tbaa !11
  %43 = load ptr, ptr %5, align 8, !tbaa !11
  %44 = call i64 @strlen(ptr noundef %43) #8
  call void @_Z15luaL_addlstringP11luaL_StrbufPKcm(ptr noundef %7, ptr noundef %42, i64 noundef %44)
  call void @_Z15luaL_addlstringP11luaL_StrbufPKcm(ptr noundef %7, ptr noundef @.str.8, i64 noundef 1)
  br label %45

45:                                               ; preds = %41, %37
  call void @llvm.lifetime.start.p0(i64 312, ptr %8) #6
  call void @llvm.lifetime.start.p0(i64 4, ptr %9) #6
  %46 = load i32, ptr %6, align 4, !tbaa !9
  store i32 %46, ptr %9, align 4, !tbaa !9
  br label %47

47:                                               ; preds = %133, %45
  %48 = load ptr, ptr %4, align 8, !tbaa !4
  %49 = load i32, ptr %9, align 4, !tbaa !9
  %50 = call noundef i32 @_Z11lua_getinfoP9lua_StateiPKcP9lua_Debug(ptr noundef %48, i32 noundef %49, ptr noundef @.str.9, ptr noundef %8)
  %51 = icmp ne i32 %50, 0
  br i1 %51, label %53, label %52

52:                                               ; preds = %47
  store i32 2, ptr %10, align 4
  call void @llvm.lifetime.end.p0(i64 4, ptr %9) #6
  br label %136

53:                                               ; preds = %47
  %54 = getelementptr inbounds nuw %struct.lua_Debug, ptr %8, i32 0, i32 1
  %55 = load ptr, ptr %54, align 8, !tbaa !26
  %56 = call i32 @strcmp(ptr noundef %55, ptr noundef @.str.10) #8
  %57 = icmp eq i32 %56, 0
  br i1 %57, label %58, label %59

58:                                               ; preds = %53
  br label %133

59:                                               ; preds = %53
  %60 = getelementptr inbounds nuw %struct.lua_Debug, ptr %8, i32 0, i32 2
  %61 = load ptr, ptr %60, align 8, !tbaa !27
  %62 = icmp ne ptr %61, null
  br i1 %62, label %63, label %69

63:                                               ; preds = %59
  %64 = getelementptr inbounds nuw %struct.lua_Debug, ptr %8, i32 0, i32 3
  %65 = load ptr, ptr %64, align 8, !tbaa !18
  %66 = getelementptr inbounds nuw %struct.lua_Debug, ptr %8, i32 0, i32 3
  %67 = load ptr, ptr %66, align 8, !tbaa !18
  %68 = call i64 @strlen(ptr noundef %67) #8
  call void @_Z15luaL_addlstringP11luaL_StrbufPKcm(ptr noundef %7, ptr noundef %65, i64 noundef %68)
  br label %69

69:                                               ; preds = %63, %59
  %70 = getelementptr inbounds nuw %struct.lua_Debug, ptr %8, i32 0, i32 5
  %71 = load i32, ptr %70, align 4, !tbaa !20
  %72 = icmp sgt i32 %71, 0
  br i1 %72, label %73, label %111

73:                                               ; preds = %69
  call void @llvm.lifetime.start.p0(i64 32, ptr %11) #6
  call void @llvm.lifetime.start.p0(i64 8, ptr %12) #6
  %74 = getelementptr inbounds [32 x i8], ptr %11, i64 0, i64 0
  %75 = getelementptr inbounds nuw i8, ptr %74, i64 32
  store ptr %75, ptr %12, align 8, !tbaa !11
  call void @llvm.lifetime.start.p0(i64 8, ptr %13) #6
  %76 = load ptr, ptr %12, align 8, !tbaa !11
  store ptr %76, ptr %13, align 8, !tbaa !11
  call void @llvm.lifetime.start.p0(i64 4, ptr %14) #6
  %77 = getelementptr inbounds nuw %struct.lua_Debug, ptr %8, i32 0, i32 5
  %78 = load i32, ptr %77, align 4, !tbaa !20
  store i32 %78, ptr %14, align 4, !tbaa !9
  br label %79

79:                                               ; preds = %90, %73
  %80 = load i32, ptr %14, align 4, !tbaa !9
  %81 = icmp ugt i32 %80, 0
  br i1 %81, label %83, label %82

82:                                               ; preds = %79
  store i32 5, ptr %10, align 4
  call void @llvm.lifetime.end.p0(i64 4, ptr %14) #6
  br label %93

83:                                               ; preds = %79
  %84 = load i32, ptr %14, align 4, !tbaa !9
  %85 = urem i32 %84, 10
  %86 = add i32 48, %85
  %87 = trunc i32 %86 to i8
  %88 = load ptr, ptr %13, align 8, !tbaa !11
  %89 = getelementptr inbounds i8, ptr %88, i32 -1
  store ptr %89, ptr %13, align 8, !tbaa !11
  store i8 %87, ptr %89, align 1, !tbaa !13
  br label %90

90:                                               ; preds = %83
  %91 = load i32, ptr %14, align 4, !tbaa !9
  %92 = udiv i32 %91, 10
  store i32 %92, ptr %14, align 4, !tbaa !9
  br label %79, !llvm.loop !28

93:                                               ; preds = %82
  %94 = getelementptr inbounds nuw %struct.luaL_Strbuf, ptr %7, i32 0, i32 0
  %95 = load ptr, ptr %94, align 8, !tbaa !29
  %96 = getelementptr inbounds nuw %struct.luaL_Strbuf, ptr %7, i32 0, i32 1
  %97 = load ptr, ptr %96, align 8, !tbaa !32
  %98 = icmp ult ptr %95, %97
  br i1 %98, label %101, label %99

99:                                               ; preds = %93
  %100 = call noundef ptr @_Z17luaL_prepbuffsizeP11luaL_Strbufm(ptr noundef %7, i64 noundef 1)
  br label %101

101:                                              ; preds = %99, %93
  %102 = getelementptr inbounds nuw %struct.luaL_Strbuf, ptr %7, i32 0, i32 0
  %103 = load ptr, ptr %102, align 8, !tbaa !29
  %104 = getelementptr inbounds nuw i8, ptr %103, i32 1
  store ptr %104, ptr %102, align 8, !tbaa !29
  store i8 58, ptr %103, align 1, !tbaa !13
  %105 = load ptr, ptr %13, align 8, !tbaa !11
  %106 = load ptr, ptr %12, align 8, !tbaa !11
  %107 = load ptr, ptr %13, align 8, !tbaa !11
  %108 = ptrtoint ptr %106 to i64
  %109 = ptrtoint ptr %107 to i64
  %110 = sub i64 %108, %109
  call void @_Z15luaL_addlstringP11luaL_StrbufPKcm(ptr noundef %7, ptr noundef %105, i64 noundef %110)
  call void @llvm.lifetime.end.p0(i64 8, ptr %13) #6
  call void @llvm.lifetime.end.p0(i64 8, ptr %12) #6
  call void @llvm.lifetime.end.p0(i64 32, ptr %11) #6
  br label %111

111:                                              ; preds = %101, %69
  %112 = getelementptr inbounds nuw %struct.lua_Debug, ptr %8, i32 0, i32 0
  %113 = load ptr, ptr %112, align 8, !tbaa !21
  %114 = icmp ne ptr %113, null
  br i1 %114, label %115, label %121

115:                                              ; preds = %111
  call void @_Z15luaL_addlstringP11luaL_StrbufPKcm(ptr noundef %7, ptr noundef @.str.11, i64 noundef 10)
  %116 = getelementptr inbounds nuw %struct.lua_Debug, ptr %8, i32 0, i32 0
  %117 = load ptr, ptr %116, align 8, !tbaa !21
  %118 = getelementptr inbounds nuw %struct.lua_Debug, ptr %8, i32 0, i32 0
  %119 = load ptr, ptr %118, align 8, !tbaa !21
  %120 = call i64 @strlen(ptr noundef %119) #8
  call void @_Z15luaL_addlstringP11luaL_StrbufPKcm(ptr noundef %7, ptr noundef %117, i64 noundef %120)
  br label %121

121:                                              ; preds = %115, %111
  %122 = getelementptr inbounds nuw %struct.luaL_Strbuf, ptr %7, i32 0, i32 0
  %123 = load ptr, ptr %122, align 8, !tbaa !29
  %124 = getelementptr inbounds nuw %struct.luaL_Strbuf, ptr %7, i32 0, i32 1
  %125 = load ptr, ptr %124, align 8, !tbaa !32
  %126 = icmp ult ptr %123, %125
  br i1 %126, label %129, label %127

127:                                              ; preds = %121
  %128 = call noundef ptr @_Z17luaL_prepbuffsizeP11luaL_Strbufm(ptr noundef %7, i64 noundef 1)
  br label %129

129:                                              ; preds = %127, %121
  %130 = getelementptr inbounds nuw %struct.luaL_Strbuf, ptr %7, i32 0, i32 0
  %131 = load ptr, ptr %130, align 8, !tbaa !29
  %132 = getelementptr inbounds nuw i8, ptr %131, i32 1
  store ptr %132, ptr %130, align 8, !tbaa !29
  store i8 10, ptr %131, align 1, !tbaa !13
  br label %133

133:                                              ; preds = %129, %58
  %134 = load i32, ptr %9, align 4, !tbaa !9
  %135 = add nsw i32 %134, 1
  store i32 %135, ptr %9, align 4, !tbaa !9
  br label %47, !llvm.loop !33

136:                                              ; preds = %52
  call void @_Z15luaL_pushresultP11luaL_Strbuf(ptr noundef %7)
  store i32 1, ptr %10, align 4
  call void @llvm.lifetime.end.p0(i64 312, ptr %8) #6
  call void @llvm.lifetime.end.p0(i64 544, ptr %7) #6
  call void @llvm.lifetime.end.p0(i64 4, ptr %6) #6
  call void @llvm.lifetime.end.p0(i64 8, ptr %5) #6
  call void @llvm.lifetime.end.p0(i64 8, ptr %4) #6
  call void @llvm.lifetime.end.p0(i64 4, ptr %3) #6
  ret i32 1
}