; Function Attrs: mustprogress uwtable
define internal noundef i32 @_ZL12db_tracebackP9lua_State(ptr noundef %0) #0 {
  %2 = alloca %struct.luaL_Strbuf, align 8
  %3 = alloca %struct.lua_Debug, align 8
  %4 = alloca [32 x i8], align 16
  %5 = tail call noundef i32 @_Z8lua_typeP9lua_Statei(ptr noundef %0, i32 noundef 1)
  %6 = icmp eq i32 %5, 9
  br i1 %6, label %7, label %_ZL9getthreadP9lua_StatePi.exit

7:                                                ; preds = %1
  %8 = tail call noundef ptr @_Z12lua_tothreadP9lua_Statei(ptr noundef %0, i32 noundef 1)
  br label %_ZL9getthreadP9lua_StatePi.exit

_ZL9getthreadP9lua_StatePi.exit:                  ; preds = %1, %7
  %.032 = phi i32 [ 1, %7 ], [ 0, %1 ]
  %.0.i = phi ptr [ %8, %7 ], [ %0, %1 ]
  %9 = add nuw nsw i32 %.032, 1
  %10 = tail call noundef ptr @_Z15luaL_optlstringP9lua_StateiPKcPm(ptr noundef %0, i32 noundef %9, ptr noundef null, ptr noundef null)
  %11 = or disjoint i32 %.032, 2
  %12 = icmp eq ptr %0, %.0.i
  %13 = zext i1 %12 to i32
  %14 = tail call noundef i32 @_Z15luaL_optintegerP9lua_Stateii(ptr noundef %0, i32 noundef %11, i32 noundef %13)
  %15 = icmp sgt i32 %14, -1
  br i1 %15, label %17, label %16

16:                                               ; preds = %_ZL9getthreadP9lua_StatePi.exit
  tail call void @_Z14luaL_argerrorLP9lua_StateiPKc(ptr noundef %0, i32 noundef %11, ptr noundef nonnull @.str.3) #6
  unreachable

17:                                               ; preds = %_ZL9getthreadP9lua_StatePi.exit
  call void @llvm.lifetime.start.p0(i64 544, ptr nonnull %2) #7
  call void @_Z13luaL_buffinitP9lua_StateP11luaL_Strbuf(ptr noundef %0, ptr noundef nonnull %2)
  %.not = icmp eq ptr %10, null
  br i1 %.not, label %20, label %18

18:                                               ; preds = %17
  %19 = call i64 @strlen(ptr noundef nonnull dereferenceable(1) %10) #8
  call void @_Z15luaL_addlstringP11luaL_StrbufPKcm(ptr noundef nonnull %2, ptr noundef nonnull %10, i64 noundef %19)
  call void @_Z15luaL_addlstringP11luaL_StrbufPKcm(ptr noundef nonnull %2, ptr noundef nonnull @.str.8, i64 noundef 1)
  br label %20

20:                                               ; preds = %18, %17
  call void @llvm.lifetime.start.p0(i64 312, ptr nonnull %3) #7
  %21 = call noundef i32 @_Z11lua_getinfoP9lua_StateiPKcP9lua_Debug(ptr noundef %.0.i, i32 noundef %14, ptr noundef nonnull @.str.9, ptr noundef nonnull %3)
  %.not2635 = icmp eq i32 %21, 0
  br i1 %.not2635, label %._crit_edge, label %sub_0.lr.ph

sub_0.lr.ph:                                      ; preds = %20
  %22 = getelementptr inbounds nuw i8, ptr %3, i64 8
  %23 = getelementptr inbounds nuw i8, ptr %3, i64 16
  %24 = getelementptr inbounds nuw i8, ptr %3, i64 24
  %25 = getelementptr inbounds nuw i8, ptr %3, i64 36
  %26 = getelementptr inbounds nuw i8, ptr %4, i64 32
  %27 = getelementptr inbounds nuw i8, ptr %2, i64 8
  %28 = ptrtoint ptr %26 to i64
  br label %sub_0

._crit_edge:                                      ; preds = %73, %20
  call void @_Z15luaL_pushresultP11luaL_Strbuf(ptr noundef nonnull %2)
  call void @llvm.lifetime.end.p0(i64 312, ptr nonnull %3) #7
  call void @llvm.lifetime.end.p0(i64 544, ptr nonnull %2) #7
  ret i32 1

sub_0:                                            ; preds = %sub_0.lr.ph, %73
  %.02336 = phi i32 [ %14, %sub_0.lr.ph ], [ %74, %73 ]
  %29 = load ptr, ptr %22, align 8, !tbaa !22
  %30 = load i8, ptr %29, align 1
  %.not37 = icmp eq i8 %30, 67
  br i1 %.not37, label %.tail, label %.tail.thread

.tail:                                            ; preds = %sub_0
  %31 = getelementptr inbounds nuw i8, ptr %29, i64 1
  %32 = load i8, ptr %31, align 1
  %33 = icmp eq i8 %32, 0
  br i1 %33, label %73, label %.tail.thread

.tail.thread:                                     ; preds = %sub_0, %.tail
  %34 = load ptr, ptr %23, align 8, !tbaa !23
  %.not27 = icmp eq ptr %34, null
  br i1 %.not27, label %38, label %35

35:                                               ; preds = %.tail.thread
  %36 = load ptr, ptr %24, align 8, !tbaa !19
  %37 = call i64 @strlen(ptr noundef nonnull dereferenceable(1) %36) #8
  call void @_Z15luaL_addlstringP11luaL_StrbufPKcm(ptr noundef nonnull %2, ptr noundef nonnull %36, i64 noundef %37)
  br label %38

38:                                               ; preds = %35, %.tail.thread
  %39 = load i32, ptr %25, align 4, !tbaa !18
  %40 = icmp sgt i32 %39, 0
  br i1 %40, label %41, label %59

41:                                               ; preds = %38
  call void @llvm.lifetime.start.p0(i64 32, ptr nonnull %4) #7
  br label %46

42:                                               ; preds = %46
  %43 = load ptr, ptr %2, align 8, !tbaa !24
  %44 = load ptr, ptr %27, align 8, !tbaa !28
  %45 = icmp ult ptr %43, %44
  br i1 %45, label %54, label %52

46:                                               ; preds = %41, %46
  %.034 = phi i32 [ %39, %41 ], [ %51, %46 ]
  %.02233 = phi ptr [ %26, %41 ], [ %50, %46 ]
  %47 = urem i32 %.034, 10
  %48 = trunc nuw nsw i32 %47 to i8
  %49 = or disjoint i8 %48, 48
  %50 = getelementptr inbounds i8, ptr %.02233, i64 -1
  store i8 %49, ptr %50, align 1, !tbaa !4
  %51 = udiv i32 %.034, 10
  %.not28 = icmp ult i32 %.034, 10
  br i1 %.not28, label %42, label %46, !llvm.loop !29

52:                                               ; preds = %42
  %53 = call noundef ptr @_Z17luaL_prepbuffsizeP11luaL_Strbufm(ptr noundef nonnull %2, i64 noundef 1)
  %.pre = load ptr, ptr %2, align 8, !tbaa !24
  br label %54

54:                                               ; preds = %52, %42
  %55 = phi ptr [ %.pre, %52 ], [ %43, %42 ]
  %56 = getelementptr inbounds nuw i8, ptr %55, i64 1
  store ptr %56, ptr %2, align 8, !tbaa !24
  store i8 58, ptr %55, align 1, !tbaa !4
  %57 = ptrtoint ptr %50 to i64
  %58 = sub i64 %28, %57
  call void @_Z15luaL_addlstringP11luaL_StrbufPKcm(ptr noundef nonnull %2, ptr noundef nonnull %50, i64 noundef %58)
  call void @llvm.lifetime.end.p0(i64 32, ptr nonnull %4) #7
  br label %59

59:                                               ; preds = %54, %38
  %60 = load ptr, ptr %3, align 8, !tbaa !17
  %.not29 = icmp eq ptr %60, null
  br i1 %.not29, label %64, label %61

61:                                               ; preds = %59
  call void @_Z15luaL_addlstringP11luaL_StrbufPKcm(ptr noundef nonnull %2, ptr noundef nonnull @.str.11, i64 noundef 10)
  %62 = load ptr, ptr %3, align 8, !tbaa !17
  %63 = call i64 @strlen(ptr noundef nonnull dereferenceable(1) %62) #8
  call void @_Z15luaL_addlstringP11luaL_StrbufPKcm(ptr noundef nonnull %2, ptr noundef nonnull %62, i64 noundef %63)
  br label %64

64:                                               ; preds = %61, %59
  %65 = load ptr, ptr %2, align 8, !tbaa !24
  %66 = load ptr, ptr %27, align 8, !tbaa !28
  %67 = icmp ult ptr %65, %66
  br i1 %67, label %70, label %68

68:                                               ; preds = %64
  %69 = call noundef ptr @_Z17luaL_prepbuffsizeP11luaL_Strbufm(ptr noundef nonnull %2, i64 noundef 1)
  %.pre38 = load ptr, ptr %2, align 8, !tbaa !24
  br label %70

70:                                               ; preds = %68, %64
  %71 = phi ptr [ %.pre38, %68 ], [ %65, %64 ]
  %72 = getelementptr inbounds nuw i8, ptr %71, i64 1
  store ptr %72, ptr %2, align 8, !tbaa !24
  store i8 10, ptr %71, align 1, !tbaa !4
  br label %73

73:                                               ; preds = %.tail, %70
  %74 = add nuw nsw i32 %.02336, 1
  %75 = call noundef i32 @_Z11lua_getinfoP9lua_StateiPKcP9lua_Debug(ptr noundef %.0.i, i32 noundef %74, ptr noundef nonnull @.str.9, ptr noundef nonnull %3)
  %.not26 = icmp eq i32 %75, 0
  br i1 %.not26, label %._crit_edge, label %sub_0, !llvm.loop !30
}